target datalayout = "e-m:e-p270:32:32-p271:32:32-p272:64:64-i64:64-i128:128-f80:128-n8:16:32:64-S128"
target triple = "x86_64-pc-linux-gnu"

%"class.icu_77::CaseFoldingUCharIterator" = type { ptr, i64, i64, ptr, i32, i32 }

; Function Attrs: mustprogress nounwind uwtable
define void @_ZN6icu_7724CaseFoldingUCharIteratorC2EPKDsll(ptr noundef nonnull align 8 dereferenceable(40) %0, ptr noundef %1, i64 noundef %2, i64 noundef %3) unnamed_addr #0 align 2 {
  %5 = alloca ptr, align 8
  %6 = alloca ptr, align 8
  %7 = alloca i64, align 8
  %8 = alloca i64, align 8
  store ptr %0, ptr %5, align 8, !tbaa !28
  store ptr %1, ptr %6, align 8, !tbaa !30
  store i64 %2, ptr %7, align 8, !tbaa !31
  store i64 %3, ptr %8, align 8, !tbaa !31
  %9 = load ptr, ptr %5, align 8
  %10 = getelementptr inbounds nuw %"class.icu_77::CaseFoldingUCharIterator", ptr %9, i32 0, i32 0
  %11 = load ptr, ptr %6, align 8, !tbaa !30
  store ptr %11, ptr %10, align 8, !tbaa !32
  %12 = getelementptr inbounds nuw %"class.icu_77::CaseFoldingUCharIterator", ptr %9, i32 0, i32 1
  %13 = load i64, ptr %7, align 8, !tbaa !31
  store i64 %13, ptr %12, align 8, !tbaa !34
  %14 = getelementptr inbounds nuw %"class.icu_77::CaseFoldingUCharIterator", ptr %9, i32 0, i32 2
  %15 = load i64, ptr %8, align 8, !tbaa !31
  store i64 %15, ptr %14, align 8, !tbaa !35
  %16 = getelementptr inbounds nuw %"class.icu_77::CaseFoldingUCharIterator", ptr %9, i32 0, i32 3
  store ptr null, ptr %16, align 8, !tbaa !36
  %17 = getelementptr inbounds nuw %"class.icu_77::CaseFoldingUCharIterator", ptr %9, i32 0, i32 4
  store i32 0, ptr %17, align 8, !tbaa !37
  ret void
}